; Function Attrs: mustprogress nounwind uwtable
define hidden void @_ZN15fpa_decl_pluginD2Ev(ptr noundef nonnull align 8 dereferenceable(1008) %this) unnamed_addr #4 align 2 personality ptr @__gxx_personality_v0 {
entry:
  store ptr getelementptr inbounds ({ [23 x ptr] }, ptr @_ZTV15fpa_decl_plugin, i64 0, i32 0, i64 2), ptr %this, align 8
  %m_table.i.i = getelementptr inbounds i8, ptr %this, i64 912
  %0 = load ptr, ptr %m_table.i.i, align 8
  %cmp.i.i.i = icmp eq ptr %0, null
  br i1 %cmp.i.i.i, label %_ZN10chashtableIjN15fpa_decl_plugin13mpf_hash_procENS0_11mpf_eq_procEED2Ev.exit, label %for.cond.preheader.i.i.i

for.cond.preheader.i.i.i:                         ; preds = %entry
  invoke void @_ZN6memory10deallocateEPv(ptr noundef nonnull %0)
          to label %_ZN10chashtableIjN15fpa_decl_plugin13mpf_hash_procENS0_11mpf_eq_procEED2Ev.exit unwind label %terminate.lpad.i

terminate.lpad.i:                                 ; preds = %for.cond.preheader.i.i.i
  %1 = landingpad { ptr, i32 }
          catch ptr null
  %2 = extractvalue { ptr, i32 } %1, 0
  tail call void @__clang_call_terminate(ptr %2) #19
  unreachable

_ZN10chashtableIjN15fpa_decl_plugin13mpf_hash_procENS0_11mpf_eq_procEED2Ev.exit: ; preds = %entry, %for.cond.preheader.i.i.i
  %m_values = getelementptr inbounds i8, ptr %this, i64 880
  %3 = load ptr, ptr %m_values, align 8
  %cmp.i.i.i1 = icmp eq ptr %3, null
  br i1 %cmp.i.i.i1, label %_ZN22_scoped_numeral_vectorI11mpf_managerED2Ev.exit, label %_ZNK6vectorI3mpfLb0EjE4sizeEv.exit.i.i

_ZNK6vectorI3mpfLb0EjE4sizeEv.exit.i.i:           ; preds = %_ZN10chashtableIjN15fpa_decl_plugin13mpf_hash_procENS0_11mpf_eq_procEED2Ev.exit
  %arrayidx.i.i.i = getelementptr inbounds i8, ptr %3, i64 -4
  %4 = load i32, ptr %arrayidx.i.i.i, align 4
  %cmp6.not.i.i = icmp eq i32 %4, 0
  br i1 %cmp6.not.i.i, label %invoke.cont.i, label %for.body.lr.ph.i.i

for.body.lr.ph.i.i:                               ; preds = %_ZNK6vectorI3mpfLb0EjE4sizeEv.exit.i.i
  %m_manager.i.i.i = getelementptr inbounds i8, ptr %this, i64 888
  %wide.trip.count.i.i = zext i32 %4 to i64
  br label %for.body.i.i

for.body.i.i:                                     ; preds = %.noexc.i, %for.body.lr.ph.i.i
  %indvars.iv.i.i = phi i64 [ 0, %for.body.lr.ph.i.i ], [ %indvars.iv.next.i.i, %.noexc.i ]
  %5 = load ptr, ptr %m_manager.i.i.i, align 8
  %6 = load ptr, ptr %m_values, align 8
  %m_mpz_manager.i.i.i = getelementptr inbounds i8, ptr %5, i64 728
  %7 = load ptr, ptr %m_mpz_manager.i.i.i, align 8
  %significand.i.i.i = getelementptr inbounds %class.mpf, ptr %6, i64 %indvars.iv.i.i, i32 1
  invoke void @_ZN11mpz_managerILb0EE3delEPS0_R3mpz(ptr noundef nonnull %7, ptr noundef nonnull align 8 dereferenceable(16) %significand.i.i.i)
          to label %.noexc.i unwind label %terminate.lpad.i2

.noexc.i:                                         ; preds = %for.body.i.i
  %indvars.iv.next.i.i = add nuw nsw i64 %indvars.iv.i.i, 1
  %exitcond.not.i.i = icmp eq i64 %indvars.iv.next.i.i, %wide.trip.count.i.i
  br i1 %exitcond.not.i.i, label %for.end.i.i, label %for.body.i.i, !llvm.loop !6

for.end.i.i:                                      ; preds = %.noexc.i
  %.pre.i.i = load ptr, ptr %m_values, align 8
  %tobool.not.i.i.i = icmp eq ptr %.pre.i.i, null
  br i1 %tobool.not.i.i.i, label %_ZN22_scoped_numeral_vectorI11mpf_managerED2Ev.exit, label %invoke.cont.i

invoke.cont.i:                                    ; preds = %for.end.i.i, %_ZNK6vectorI3mpfLb0EjE4sizeEv.exit.i.i
  %8 = phi ptr [ %.pre.i.i, %for.end.i.i ], [ %3, %_ZNK6vectorI3mpfLb0EjE4sizeEv.exit.i.i ]
  %arrayidx.i4.i.i = getelementptr inbounds i8, ptr %8, i64 -4
  store i32 0, ptr %arrayidx.i4.i.i, align 4
  %.pr.i = load ptr, ptr %m_values, align 8
  %tobool.not.i.i.i.i = icmp eq ptr %.pr.i, null
  br i1 %tobool.not.i.i.i.i, label %_ZN22_scoped_numeral_vectorI11mpf_managerED2Ev.exit, label %if.then.i.i.i.i

if.then.i.i.i.i:                                  ; preds = %invoke.cont.i
  %add.ptr.i.i.i.i.i = getelementptr inbounds i8, ptr %.pr.i, i64 -8
  invoke void @_ZN6memory10deallocateEPv(ptr noundef nonnull %add.ptr.i.i.i.i.i)
          to label %_ZN22_scoped_numeral_vectorI11mpf_managerED2Ev.exit unwind label %terminate.lpad.i.i.i

terminate.lpad.i.i.i:                             ; preds = %if.then.i.i.i.i
  %9 = landingpad { ptr, i32 }
          catch ptr null
  %10 = extractvalue { ptr, i32 } %9, 0
  tail call void @__clang_call_terminate(ptr %10) #19
  unreachable

terminate.lpad.i2:                                ; preds = %for.body.i.i
  %11 = landingpad { ptr, i32 }
          catch ptr null
  %12 = extractvalue { ptr, i32 } %11, 0
  tail call void @__clang_call_terminate(ptr %12) #19
  unreachable

_ZN22_scoped_numeral_vectorI11mpf_managerED2Ev.exit: ; preds = %_ZN10chashtableIjN15fpa_decl_plugin13mpf_hash_procENS0_11mpf_eq_procEED2Ev.exit, %for.end.i.i, %invoke.cont.i, %if.then.i.i.i.i
  %m_free_ids.i = getelementptr inbounds i8, ptr %this, i64 872
  %13 = load ptr, ptr %m_free_ids.i, align 8
  %tobool.not.i.i.i.i3 = icmp eq ptr %13, null
  br i1 %tobool.not.i.i.i.i3, label %_ZN6id_genD2Ev.exit, label %if.then.i.i.i.i4

if.then.i.i.i.i4:                                 ; preds = %_ZN22_scoped_numeral_vectorI11mpf_managerED2Ev.exit
  %add.ptr.i.i.i.i.i5 = getelementptr inbounds i8, ptr %13, i64 -8
  invoke void @_ZN6memory10deallocateEPv(ptr noundef nonnull %add.ptr.i.i.i.i.i5)
          to label %_ZN6id_genD2Ev.exit unwind label %terminate.lpad.i.i.i6

terminate.lpad.i.i.i6:                            ; preds = %if.then.i.i.i.i4
  %14 = landingpad { ptr, i32 }
          catch ptr null
  %15 = extractvalue { ptr, i32 } %14, 0
  tail call void @__clang_call_terminate(ptr %15) #19
  unreachable

_ZN6id_genD2Ev.exit:                              ; preds = %_ZN22_scoped_numeral_vectorI11mpf_managerED2Ev.exit, %if.then.i.i.i.i4
  %m_fm = getelementptr inbounds i8, ptr %this, i64 24
  %m_powers2.i = getelementptr inbounds i8, ptr %this, i64 760
  tail call void @_ZN11mpf_manager7powers2D2Ev(ptr noundef nonnull align 8 dereferenceable(104) %m_powers2.i) #18
  tail call void @_ZN11mpq_managerILb0EED1Ev(ptr noundef nonnull align 8 dereferenceable(728) %m_fm) #18
  ret void
}